; Function Attrs: mustprogress uwtable
define noundef i32 @_ZN12colvarscript15set_result_textIiEEiRKT_Ph(ptr noundef nonnull align 8 dereferenceable(304) %0, ptr noundef nonnull align 4 dereferenceable(4) %1, ptr noundef writeonly %2) local_unnamed_addr #0 align 2 personality ptr @__gxx_personality_v0 {
  %4 = alloca %"class.std::__cxx11::basic_string", align 8
  call void @_ZN12colvarmodule6to_strB5cxx11ERKimm(ptr dead_on_unwind nonnull writable sret(%"class.std::__cxx11::basic_string") align 8 %4, ptr noundef nonnull align 4 dereferenceable(4) %1, i64 noundef 0, i64 noundef 0)
  %.not.i = icmp eq ptr %2, null
  br i1 %.not.i, label %8, label %5

5:                                                ; preds = %3
  %6 = call noundef ptr @_ZNKSt7__cxx1112basic_stringIcSt11char_traitsIcESaIcEE5c_strEv(ptr noundef nonnull align 8 dereferenceable(32) %4) #17
  %7 = call noundef i64 @_ZNKSt7__cxx1112basic_stringIcSt11char_traitsIcESaIcEE4sizeEv(ptr noundef nonnull align 8 dereferenceable(32) %4) #17
  call void @llvm.memcpy.p0.p0.i64(ptr nonnull align 1 %2, ptr align 1 %6, i64 %7, i1 false)
  br label %_ZN12colvarscript24set_result_text_from_strERKNSt7__cxx1112basic_stringIcSt11char_traitsIcESaIcEEEPh.exit

8:                                                ; preds = %3
  %9 = load i32, ptr @_ZN12colvarmodule9errorCodeE, align 4
  %.not.i.i = icmp eq i32 %9, 0
  %10 = getelementptr inbounds i8, ptr %0, i64 16
  br i1 %.not.i.i, label %13, label %11

11:                                               ; preds = %8
  %12 = invoke noundef nonnull align 8 dereferenceable(32) ptr @_ZNSt7__cxx1112basic_stringIcSt11char_traitsIcESaIcEEpLERKS4_(ptr noundef nonnull align 8 dereferenceable(32) %10, ptr noundef nonnull align 8 dereferenceable(32) %4)
          to label %_ZN12colvarscript24set_result_text_from_strERKNSt7__cxx1112basic_stringIcSt11char_traitsIcESaIcEEEPh.exit unwind label %15

13:                                               ; preds = %8
  %14 = invoke noundef nonnull align 8 dereferenceable(32) ptr @_ZNSt7__cxx1112basic_stringIcSt11char_traitsIcESaIcEEaSERKS4_(ptr noundef nonnull align 8 dereferenceable(32) %10, ptr noundef nonnull align 8 dereferenceable(32) %4)
          to label %_ZN12colvarscript24set_result_text_from_strERKNSt7__cxx1112basic_stringIcSt11char_traitsIcESaIcEEEPh.exit unwind label %15

_ZN12colvarscript24set_result_text_from_strERKNSt7__cxx1112basic_stringIcSt11char_traitsIcESaIcEEEPh.exit: ; preds = %5, %11, %13
  call void @_ZNSt7__cxx1112basic_stringIcSt11char_traitsIcESaIcEED1Ev(ptr noundef nonnull align 8 dereferenceable(32) %4) #17
  ret i32 0

15:                                               ; preds = %13, %11
  %16 = landingpad { ptr, i32 }
          cleanup
  call void @_ZNSt7__cxx1112basic_stringIcSt11char_traitsIcESaIcEED1Ev(ptr noundef nonnull align 8 dereferenceable(32) %4) #17
  resume { ptr, i32 } %16
}